target datalayout = "e-m:e-p270:32:32-p271:32:32-p272:64:64-i64:64-i128:128-f80:128-n8:16:32:64-S128"
target triple = "x86_64-pc-linux-gnu"

%struct.UDataInfo = type { i16, i16, i8, i8, i8, i8, [4 x i8], [4 x i8], [4 x i8] }

; Function Attrs: mustprogress nounwind uwtable
define noundef signext i8 @_ZN6icu_7721LoadedNormalizer2Impl12isAcceptableEPvPKcS3_PK9UDataInfo(ptr noundef %0, ptr noundef %1, ptr noundef %2, ptr noundef %3) #0 align 2 {
  %5 = alloca i8, align 1
  %6 = alloca ptr, align 8
  %7 = alloca ptr, align 8
  %8 = alloca ptr, align 8
  %9 = alloca ptr, align 8
  store ptr %0, ptr %6, align 8, !tbaa !27
  store ptr %1, ptr %7, align 8, !tbaa !28
  store ptr %2, ptr %8, align 8, !tbaa !28
  store ptr %3, ptr %9, align 8, !tbaa !27
  %10 = load ptr, ptr %9, align 8, !tbaa !27
  %11 = getelementptr inbounds nuw %struct.UDataInfo, ptr %10, i32 0, i32 0
  %12 = load i16, ptr %11, align 2, !tbaa !29
  %13 = zext i16 %12 to i32
  %14 = icmp sge i32 %13, 20
  br i1 %14, label %15, label %63

15:                                               ; preds = %4
  %16 = load ptr, ptr %9, align 8, !tbaa !27
  %17 = getelementptr inbounds nuw %struct.UDataInfo, ptr %16, i32 0, i32 2
  %18 = load i8, ptr %17, align 2, !tbaa !31
  %19 = zext i8 %18 to i32
  %20 = icmp eq i32 %19, 0
  br i1 %20, label %21, label %63

21:                                               ; preds = %15
  %22 = load ptr, ptr %9, align 8, !tbaa !27
  %23 = getelementptr inbounds nuw %struct.UDataInfo, ptr %22, i32 0, i32 3
  %24 = load i8, ptr %23, align 1, !tbaa !32
  %25 = zext i8 %24 to i32
  %26 = icmp eq i32 %25, 0
  br i1 %26, label %27, label %63

27:                                               ; preds = %21
  %28 = load ptr, ptr %9, align 8, !tbaa !27
  %29 = getelementptr inbounds nuw %struct.UDataInfo, ptr %28, i32 0, i32 6
  %30 = getelementptr inbounds [4 x i8], ptr %29, i64 0, i64 0
  %31 = load i8, ptr %30, align 2, !tbaa !33
  %32 = zext i8 %31 to i32
  %33 = icmp eq i32 %32, 78
  br i1 %33, label %34, label %63

34:                                               ; preds = %27
  %35 = load ptr, ptr %9, align 8, !tbaa !27
  %36 = getelementptr inbounds nuw %struct.UDataInfo, ptr %35, i32 0, i32 6
  %37 = getelementptr inbounds [4 x i8], ptr %36, i64 0, i64 1
  %38 = load i8, ptr %37, align 1, !tbaa !33
  %39 = zext i8 %38 to i32
  %40 = icmp eq i32 %39, 114
  br i1 %40, label %41, label %63

41:                                               ; preds = %34
  %42 = load ptr, ptr %9, align 8, !tbaa !27
  %43 = getelementptr inbounds nuw %struct.UDataInfo, ptr %42, i32 0, i32 6
  %44 = getelementptr inbounds [4 x i8], ptr %43, i64 0, i64 2
  %45 = load i8, ptr %44, align 2, !tbaa !33
  %46 = zext i8 %45 to i32
  %47 = icmp eq i32 %46, 109
  br i1 %47, label %48, label %63

48:                                               ; preds = %41
  %49 = load ptr, ptr %9, align 8, !tbaa !27
  %50 = getelementptr inbounds nuw %struct.UDataInfo, ptr %49, i32 0, i32 6
  %51 = getelementptr inbounds [4 x i8], ptr %50, i64 0, i64 3
  %52 = load i8, ptr %51, align 1, !tbaa !33
  %53 = zext i8 %52 to i32
  %54 = icmp eq i32 %53, 50
  br i1 %54, label %55, label %63

55:                                               ; preds = %48
  %56 = load ptr, ptr %9, align 8, !tbaa !27
  %57 = getelementptr inbounds nuw %struct.UDataInfo, ptr %56, i32 0, i32 7
  %58 = getelementptr inbounds [4 x i8], ptr %57, i64 0, i64 0
  %59 = load i8, ptr %58, align 2, !tbaa !33
  %60 = zext i8 %59 to i32
  %61 = icmp eq i32 %60, 5
  br i1 %61, label %62, label %63

62:                                               ; preds = %55
  store i8 1, ptr %5, align 1
  br label %64

63:                                               ; preds = %55, %48, %41, %34, %27, %21, %15, %4
  store i8 0, ptr %5, align 1
  br label %64

64:                                               ; preds = %63, %62
  %65 = load i8, ptr %5, align 1
  ret i8 %65
}