; Function Attrs: mustprogress nofree norecurse nosync nounwind willreturn memory(argmem: read) uwtable
define noundef signext range(i8 0, 2) i8 @_ZN6icu_7721LoadedNormalizer2Impl12isAcceptableEPvPKcS3_PK9UDataInfo(ptr readnone captures(none) %0, ptr readnone captures(none) %1, ptr readnone captures(none) %2, ptr noundef readonly captures(none) %3) #5 align 2 {
  %5 = load i16, ptr %3, align 2, !tbaa !25
  %6 = icmp ugt i16 %5, 19
  br i1 %6, label %7, label %35

7:                                                ; preds = %4
  %8 = getelementptr inbounds nuw i8, ptr %3, i64 4
  %9 = load i8, ptr %8, align 2, !tbaa !27
  %10 = icmp eq i8 %9, 0
  br i1 %10, label %11, label %35

11:                                               ; preds = %7
  %12 = getelementptr inbounds nuw i8, ptr %3, i64 5
  %13 = load i8, ptr %12, align 1, !tbaa !28
  %14 = icmp eq i8 %13, 0
  br i1 %14, label %15, label %35

15:                                               ; preds = %11
  %16 = getelementptr inbounds nuw i8, ptr %3, i64 8
  %17 = load i8, ptr %16, align 2, !tbaa !29
  %18 = icmp eq i8 %17, 78
  br i1 %18, label %19, label %35

19:                                               ; preds = %15
  %20 = getelementptr inbounds nuw i8, ptr %3, i64 9
  %21 = load i8, ptr %20, align 1, !tbaa !29
  %22 = icmp eq i8 %21, 114
  br i1 %22, label %23, label %35

23:                                               ; preds = %19
  %24 = getelementptr inbounds nuw i8, ptr %3, i64 10
  %25 = load i8, ptr %24, align 2, !tbaa !29
  %26 = icmp eq i8 %25, 109
  br i1 %26, label %27, label %35

27:                                               ; preds = %23
  %28 = getelementptr inbounds nuw i8, ptr %3, i64 11
  %29 = load i8, ptr %28, align 1, !tbaa !29
  %30 = icmp eq i8 %29, 50
  br i1 %30, label %31, label %35

31:                                               ; preds = %27
  %32 = getelementptr inbounds nuw i8, ptr %3, i64 12
  %33 = load i8, ptr %32, align 2, !tbaa !29
  %34 = icmp eq i8 %33, 5
  br i1 %34, label %36, label %35

35:                                               ; preds = %31, %27, %23, %19, %15, %11, %7, %4
  br label %36

36:                                               ; preds = %31, %35
  %.0 = phi i8 [ 0, %35 ], [ 1, %31 ]
  ret i8 %.0
}